; Function Attrs: nounwind uwtable
define noalias noundef ptr @Aig_ManPartitionNaive(ptr noundef readonly captures(none) %0, i32 noundef %1) local_unnamed_addr #4 {
  %3 = getelementptr i8, ptr %0, i64 140
  %.val17 = load i32, ptr %3, align 4, !tbaa !29
  %4 = sdiv i32 %.val17, %1
  %5 = srem i32 %.val17, %1
  %6 = icmp sgt i32 %5, 0
  %7 = zext i1 %6 to i32
  %8 = add nsw i32 %4, %7
  %9 = tail call noalias dereferenceable_or_null(16) ptr @malloc(i64 noundef 16) #23
  %10 = add i32 %8, -1
  %or.cond.i.i = icmp ult i32 %10, 7
  %spec.store.select.i.i = select i1 %or.cond.i.i, i32 8, i32 %8
  store i32 %spec.store.select.i.i, ptr %9, align 8, !tbaa !97
  %.not.i.i = icmp eq i32 %spec.store.select.i.i, 0
  br i1 %.not.i.i, label %Vec_VecAlloc.exit.i, label %11

11:                                               ; preds = %2
  %12 = sext i32 %spec.store.select.i.i to i64
  %13 = shl nsw i64 %12, 3
  %14 = tail call noalias ptr @malloc(i64 noundef %13) #23
  br label %Vec_VecAlloc.exit.i

Vec_VecAlloc.exit.i:                              ; preds = %11, %2
  %15 = phi ptr [ %14, %11 ], [ null, %2 ]
  %16 = getelementptr inbounds nuw i8, ptr %9, i64 8
  store ptr %15, ptr %16, align 8, !tbaa !60
  %17 = icmp sgt i32 %8, 0
  br i1 %17, label %.lr.ph.preheader.i, label %Vec_VecStart.exit

.lr.ph.preheader.i:                               ; preds = %Vec_VecAlloc.exit.i
  %wide.trip.count.i = zext nneg i32 %8 to i64
  br label %.lr.ph.i

.lr.ph.i:                                         ; preds = %.lr.ph.i, %.lr.ph.preheader.i
  %indvars.iv.i = phi i64 [ 0, %.lr.ph.preheader.i ], [ %indvars.iv.next.i, %.lr.ph.i ]
  %calloc.i = tail call dereferenceable_or_null(16) ptr @calloc(i64 1, i64 16)
  %18 = getelementptr inbounds nuw ptr, ptr %15, i64 %indvars.iv.i
  store ptr %calloc.i, ptr %18, align 8, !tbaa !18
  %indvars.iv.next.i = add nuw nsw i64 %indvars.iv.i, 1
  %exitcond.not.i = icmp eq i64 %indvars.iv.next.i, %wide.trip.count.i
  br i1 %exitcond.not.i, label %Vec_VecStart.exit, label %.lr.ph.i, !llvm.loop !98

Vec_VecStart.exit:                                ; preds = %.lr.ph.i, %Vec_VecAlloc.exit.i
  %19 = getelementptr inbounds nuw i8, ptr %9, i64 4
  store i32 %8, ptr %19, align 4, !tbaa !58
  %20 = getelementptr inbounds nuw i8, ptr %0, i64 24
  %21 = load ptr, ptr %20, align 8, !tbaa !50
  %22 = getelementptr i8, ptr %21, i64 4
  %.val18 = load i32, ptr %22, align 4, !tbaa !12
  %23 = icmp sgt i32 %.val18, 0
  br i1 %23, label %.lr.ph, label %.critedge

.lr.ph:                                           ; preds = %Vec_VecStart.exit, %Vec_IntPush.exit
  %.019 = phi i32 [ %59, %Vec_IntPush.exit ], [ 0, %Vec_VecStart.exit ]
  %24 = sdiv i32 %.019, %1
  %25 = sext i32 %24 to i64
  %26 = getelementptr inbounds ptr, ptr %15, i64 %25
  %27 = load ptr, ptr %26, align 8, !tbaa !18
  %28 = getelementptr inbounds nuw i8, ptr %27, i64 4
  %29 = load i32, ptr %28, align 4, !tbaa !33
  %30 = load i32, ptr %27, align 8, !tbaa !36
  %31 = icmp eq i32 %29, %30
  br i1 %31, label %32, label %.Vec_IntGrow.exit10_crit_edge.i

.Vec_IntGrow.exit10_crit_edge.i:                  ; preds = %.lr.ph
  %.phi.trans.insert.i = getelementptr inbounds nuw i8, ptr %27, i64 8
  %.pre.i = load ptr, ptr %.phi.trans.insert.i, align 8, !tbaa !37
  br label %Vec_IntPush.exit

32:                                               ; preds = %.lr.ph
  %33 = icmp slt i32 %29, 16
  br i1 %33, label %34, label %42

34:                                               ; preds = %32
  %35 = getelementptr inbounds nuw i8, ptr %27, i64 8
  %36 = load ptr, ptr %35, align 8, !tbaa !37
  %.not9.i.i = icmp eq ptr %36, null
  br i1 %.not9.i.i, label %39, label %37

37:                                               ; preds = %34
  %38 = tail call dereferenceable_or_null(64) ptr @realloc(ptr noundef nonnull %36, i64 noundef 64) #25
  br label %Vec_IntGrow.exit.i

39:                                               ; preds = %34
  %40 = tail call noalias dereferenceable_or_null(64) ptr @malloc(i64 noundef 64) #23
  br label %Vec_IntGrow.exit.i

Vec_IntGrow.exit.i:                               ; preds = %39, %37
  %41 = phi ptr [ %38, %37 ], [ %40, %39 ]
  store ptr %41, ptr %35, align 8, !tbaa !37
  store i32 16, ptr %27, align 8, !tbaa !36
  br label %Vec_IntPush.exit

42:                                               ; preds = %32
  %43 = shl nuw nsw i32 %29, 1
  %44 = getelementptr inbounds nuw i8, ptr %27, i64 8
  %45 = load ptr, ptr %44, align 8, !tbaa !37
  %.not9.i9.i = icmp eq ptr %45, null
  %46 = zext nneg i32 %43 to i64
  %47 = shl nuw nsw i64 %46, 2
  br i1 %.not9.i9.i, label %50, label %48

48:                                               ; preds = %42
  %49 = tail call ptr @realloc(ptr noundef nonnull %45, i64 noundef %47) #25
  br label %52

50:                                               ; preds = %42
  %51 = tail call noalias ptr @malloc(i64 noundef %47) #23
  br label %52

52:                                               ; preds = %50, %48
  %53 = phi ptr [ %49, %48 ], [ %51, %50 ]
  store ptr %53, ptr %44, align 8, !tbaa !37
  store i32 %43, ptr %27, align 8, !tbaa !36
  br label %Vec_IntPush.exit

Vec_IntPush.exit:                                 ; preds = %.Vec_IntGrow.exit10_crit_edge.i, %Vec_IntGrow.exit.i, %52
  %54 = phi ptr [ %.pre.i, %.Vec_IntGrow.exit10_crit_edge.i ], [ %53, %52 ], [ %41, %Vec_IntGrow.exit.i ]
  %55 = load i32, ptr %28, align 4, !tbaa !33
  %56 = add nsw i32 %55, 1
  store i32 %56, ptr %28, align 4, !tbaa !33
  %57 = sext i32 %55 to i64
  %58 = getelementptr inbounds i32, ptr %54, i64 %57
  store i32 %.019, ptr %58, align 4, !tbaa !29
  %59 = add nuw nsw i32 %.019, 1
  %60 = load ptr, ptr %20, align 8, !tbaa !50
  %61 = getelementptr i8, ptr %60, i64 4
  %.val = load i32, ptr %61, align 4, !tbaa !12
  %62 = icmp slt i32 %59, %.val
  br i1 %62, label %.lr.ph, label %.critedge, !llvm.loop !99

.critedge:                                        ; preds = %Vec_IntPush.exit, %Vec_VecStart.exit
  ret ptr %9
}